ASxxxx Linker V03.00 + NoICE + sdld,  page 1.
Hexadecimal  [32-Bits]

Area                                    Addr        Size        Decimal Bytes (Attributes)
--------------------------------        ----        ----        ------- ----- ------------
.  .ABS.                            00000000    00000000 =           0. bytes (ABS,CON)

      Value  Global                              Global Defined In Module
      -----  --------------------------------   ------------------------
     00000000  .__.ABS.                           
     00000000  l__CABS                         
     00000000  l__DABS                         
     00000000  l__GSFINAL                      
     00000000  l__GSINIT                       
     00000000  l__HOME                         
     00000000  l__INITIALIZED                  
     00000000  l__INITIALIZER                  
     00000000  s__CABS                         
     00000000  s__DABS                         
     0000004D  l_HOME                          
     0000004D  s__CODE                         
     00000F3C  l__CODE                         
     00000F89  s_HOME                          
     00004195  l__DATA                         
     00008000  s__DATA                         
     0000C195  s__GSFINAL                      
     0000C195  s__GSINIT                       
     0000C195  s__HOME                         
     0000C195  s__INITIALIZED                  
     0000C195  s__INITIALIZER                  
ASxxxx Linker V03.00 + NoICE + sdld,  page 2.
Hexadecimal  [32-Bits]

Area                                    Addr        Size        Decimal Bytes (Attributes)
--------------------------------        ----        ----        ------- ----- ------------
_CODE                               0000004D    00000F3C =        3900. bytes (REL,CON)

      Value  Global                              Global Defined In Module
      -----  --------------------------------   ------------------------
     0000004D  os_start                           BOOT
     00000077  strcomp                            BOOT
     0000008E  int_to_hex                         BOOT
     000000BA  strlen                             BOOT
     000000CA  uart_send                          BOOT
     000000D5  ostream                            BOOT
     000000E5  uart_print                         BOOT
     000000EE  uart_input                         BOOT
     0000011F  gsinit                             crt0
     0000012F  _initOS                            main
     00000136  _strcmp                            main
     00000141  _strlen                            main
     0000014B  _print                             main
     00000153  _println                           main
     00000160  _input                             main
     00000168  _cls                               main
     0000016E  _malloc                            main
     0000018F  _free                              main
     00000190  _memFree                           main
     0000019E  _atoi                              main
     000001EE  _itoa                              main
     000002B3  _sprintf                           main
     0000035D  _system                            main
     0000048A  _toString                          main
     000005EE  _addVariable                       main
     0000066B  _getVar                            main
     000006BF  _readText                          main
     0000077B  _readNumber                        main
     0000082F  _resolveExpression                 main
     00000AED  _readExpression                    main
     00000AFB  _parse                             main
     00000DF8  _dext                              main
     00000E9B  _osstart                           main
     00000EDD  ___sdcc_enter_ix                   
     00000EE7  __modschar                         
     00000EF4  __modsint                          
     00000F00  __divsint                          
     00000F09  __divschar                         
     00000F10  __div8                             
     00000F14  __div_signexte                     
     00000F18  __div16                            
     00000F3E  __get_remainder                    
     00000F48  __divuint                          
     00000F50  __divuchar                         
     00000F57  __divu8                            
     00000F5A  __divu16                           

ASxxxx Linker V03.00 + NoICE + sdld,  page 3.
Hexadecimal  [32-Bits]

Area                                    Addr        Size        Decimal Bytes (Attributes)
--------------------------------        ----        ----        ------- ----- ------------
HOME                                00000F89    0000004D =          77. bytes (REL,CON)

      Value  Global                              Global Defined In Module
      -----  --------------------------------   ------------------------
     00000F89  _main                              BOOT
     00000F89  vectors                            BOOT
     00000FC1  int38                              BOOT
ASxxxx Linker V03.00 + NoICE + sdld,  page 4.
Hexadecimal  [32-Bits]

Area                                    Addr        Size        Decimal Bytes (Attributes)
--------------------------------        ----        ----        ------- ----- ------------
_DATA                               00008000    00004195 =       16789. bytes (REL,CON)

      Value  Global                              Global Defined In Module
      -----  --------------------------------   ------------------------
     00008000  _heap                              main
     0000C000  _heap_loc                          main
     0000C002  _itoa_tmp                          main
     0000C009  _num_vars                          main
     0000C00B  _vars                              main
     0000C00D  _nil                               main
     0000C013  _raw                               main
     0000C015  _kbdbuff                           main
     0000C095  _buffer                            main
ASxxxx Linker V03.00 + NoICE + sdld,  page 5.

Files Linked                              [ module(s) ]

boot.rel                                  [ BOOT ]
crt0.rel                                  [ crt0 ]
main/main.rel                             [ main ]


Libraries Linked                          [ object file ]

C:\Program Files\SDCC\bin\..\lib\z80/z80.lib
                                          [ crtenter.rel ]
C:\Program Files\SDCC\bin\..\lib\z80/z80.lib
                                          [ modsigned.rel ]
C:\Program Files\SDCC\bin\..\lib\z80/z80.lib
                                          [ divsigned.rel ]
C:\Program Files\SDCC\bin\..\lib\z80/z80.lib
                                          [ divunsigned.rel ]

ASxxxx Linker V03.00 + NoICE + sdld,  page 6.

User Base Address Definitions

_CODE = 0x0200
_DATA = 0x8000
HOME=0x0000
_CODE=0x004D
_DATA=0x8000

